; Function Attrs: nounwind uwtable
define dso_local i64 @jsonb_build_array(ptr noundef %0) local_unnamed_addr #0 {
  %2 = alloca %struct.JsonbInState, align 8
  %3 = alloca ptr, align 8
  %4 = alloca ptr, align 8
  %5 = alloca ptr, align 8
  call void @llvm.lifetime.start.p0(i64 8, ptr nonnull %3) #11
  call void @llvm.lifetime.start.p0(i64 8, ptr nonnull %4) #11
  call void @llvm.lifetime.start.p0(i64 8, ptr nonnull %5) #11
  %6 = call i32 @extract_variadic_args(ptr noundef %0, i32 noundef 0, i1 noundef zeroext true, ptr noundef nonnull %3, ptr noundef nonnull %5, ptr noundef nonnull %4) #11
  %7 = icmp slt i32 %6, 0
  br i1 %7, label %8, label %10

8:                                                ; preds = %1
  %9 = getelementptr inbounds nuw i8, ptr %0, i64 28
  store i8 1, ptr %9, align 4
  br label %26

10:                                               ; preds = %1
  %11 = load ptr, ptr %3, align 8
  %12 = load ptr, ptr %4, align 8
  %13 = load ptr, ptr %5, align 8
  call void @llvm.lifetime.start.p0(i64 32, ptr nonnull %2) #11
  call void @llvm.memset.p0.i64(ptr noundef nonnull align 8 dereferenceable(32) %2, i8 0, i64 32, i1 false)
  %14 = call ptr @pushJsonbValue(ptr noundef nonnull %2, i32 noundef 4, ptr noundef null) #11
  %15 = getelementptr inbounds nuw i8, ptr %2, i64 8
  store ptr %14, ptr %15, align 8
  %.not = icmp eq i32 %6, 0
  br i1 %.not, label %jsonb_build_array_worker.exit, label %.lr.ph.i

.lr.ph.i:                                         ; preds = %10
  %wide.trip.count17.i = zext nneg i32 %6 to i64
  br label %.lr.ph.split.i

.lr.ph.split.i:                                   ; preds = %.lr.ph.split.i, %.lr.ph.i
  %indvars.iv.i = phi i64 [ %indvars.iv.next.i, %.lr.ph.split.i ], [ 0, %.lr.ph.i ]
  %16 = getelementptr inbounds nuw i64, ptr %11, i64 %indvars.iv.i
  %17 = load i64, ptr %16, align 8
  %18 = getelementptr inbounds nuw i8, ptr %12, i64 %indvars.iv.i
  %19 = load i8, ptr %18, align 1, !range !7, !noundef !8
  %20 = trunc nuw i8 %19 to i1
  %21 = getelementptr inbounds nuw i32, ptr %13, i64 %indvars.iv.i
  %22 = load i32, ptr %21, align 4
  call fastcc void @add_jsonb(i64 noundef %17, i1 noundef zeroext %20, ptr noundef %2, i32 noundef %22, i1 noundef zeroext false)
  %indvars.iv.next.i = add nuw nsw i64 %indvars.iv.i, 1
  %exitcond.not.i = icmp eq i64 %indvars.iv.next.i, %wide.trip.count17.i
  br i1 %exitcond.not.i, label %jsonb_build_array_worker.exit, label %.lr.ph.split.i, !llvm.loop !14

jsonb_build_array_worker.exit:                    ; preds = %.lr.ph.split.i, %10
  %23 = call ptr @pushJsonbValue(ptr noundef nonnull %2, i32 noundef 5, ptr noundef null) #11
  store ptr %23, ptr %15, align 8
  %24 = call ptr @JsonbValueToJsonb(ptr noundef %23) #11
  %25 = ptrtoint ptr %24 to i64
  call void @llvm.lifetime.end.p0(i64 32, ptr nonnull %2) #11
  br label %26

26:                                               ; preds = %jsonb_build_array_worker.exit, %8
  %.0 = phi i64 [ 0, %8 ], [ %25, %jsonb_build_array_worker.exit ]
  call void @llvm.lifetime.end.p0(i64 8, ptr nonnull %5) #11
  call void @llvm.lifetime.end.p0(i64 8, ptr nonnull %4) #11
  call void @llvm.lifetime.end.p0(i64 8, ptr nonnull %3) #11
  ret i64 %.0
}